target datalayout = "e-m:e-p270:32:32-p271:32:32-p272:64:64-i64:64-i128:128-f80:128-n8:16:32:64-S128"
target triple = "x86_64-pc-linux-gnu"

%struct.cli_bc = type { %struct.bytecode_metadata, i32, i32, i32, i32, ptr, ptr, ptr, ptr, i64, i32, ptr, ptr, ptr, ptr, i32, i16, ptr, i32, i32, i32, i32, ptr, i32, i32, ptr }
%struct.bytecode_metadata = type { ptr, ptr, i64, i32, i32, i32, i32, i32 }
%struct.cli_bc_func = type { i8, i16, i32, i32, i32, i32, i16, i16, ptr, i32, ptr, ptr, ptr, ptr }
%struct.cli_bc_inst = type { i32, i16, i32, i8, %union.anon.0 }
%union.anon.0 = type { %struct.cli_bc_callop }
%struct.cli_bc_callop = type { ptr, ptr, i16, i8 }

@.str.126 = private unnamed_addr constant [2 x i8] c"\0A\00", align 1
@.str.186 = private unnamed_addr constant [74 x i8] c"------------------------------------------------------------------------\0A\00", align 1
@.str.188 = private unnamed_addr constant [65 x i8] c"bytecode diagnostic: funcid [%u] outside bytecode numfuncs [%u]\0A\00", align 1
@.str.261 = private unnamed_addr constant [34 x i8] c"FUNCTION ID: F.%d -> NUMINSTS %d\0A\00", align 1
@.str.262 = private unnamed_addr constant [51 x i8] c"BB   IDX  OPCODE              [ID /IID/MOD]  INST\0A\00", align 1
@.str.263 = private unnamed_addr constant [11 x i8] c"%3d  %3d  \00", align 1

; Function Attrs: nounwind uwtable
define void @cli_bytefunc_describe(ptr noundef %0, i32 noundef %1) #0 {
  %3 = alloca ptr, align 8
  %4 = alloca i32, align 4
  %5 = alloca i32, align 4
  %6 = alloca i32, align 4
  %7 = alloca i32, align 4
  %8 = alloca ptr, align 8
  store ptr %0, ptr %3, align 8
  store i32 %1, ptr %4, align 4
  %9 = load i32, ptr %4, align 4
  %10 = load ptr, ptr %3, align 8
  %11 = getelementptr inbounds %struct.cli_bc, ptr %10, i32 0, i32 4
  %12 = load i32, ptr %11, align 4
  %13 = icmp uge i32 %9, %12
  br i1 %13, label %14, label %20

14:                                               ; preds = %2
  %15 = load i32, ptr %4, align 4
  %16 = load ptr, ptr %3, align 8
  %17 = getelementptr inbounds %struct.cli_bc, ptr %16, i32 0, i32 4
  %18 = load i32, ptr %17, align 4
  %19 = call i32 (ptr, ...) @printf(ptr noundef @.str.188, i32 noundef %15, i32 noundef %18)
  br label %63

20:                                               ; preds = %2
  %21 = load ptr, ptr %3, align 8
  %22 = getelementptr inbounds %struct.cli_bc, ptr %21, i32 0, i32 5
  %23 = load ptr, ptr %22, align 8
  %24 = load i32, ptr %4, align 4
  %25 = zext i32 %24 to i64
  %26 = getelementptr inbounds %struct.cli_bc_func, ptr %23, i64 %25
  store ptr %26, ptr %8, align 8
  %27 = load i32, ptr %4, align 4
  %28 = load ptr, ptr %8, align 8
  %29 = getelementptr inbounds %struct.cli_bc_func, ptr %28, i32 0, i32 2
  %30 = load i32, ptr %29, align 4
  %31 = call i32 (ptr, ...) @printf(ptr noundef @.str.261, i32 noundef %27, i32 noundef %30)
  %32 = call i32 (ptr, ...) @printf(ptr noundef @.str.262)
  %33 = call i32 (ptr, ...) @printf(ptr noundef @.str.186)
  store i32 0, ptr %7, align 4
  store i32 0, ptr %6, align 4
  store i32 0, ptr %5, align 4
  br label %34

34:                                               ; preds = %58, %20
  %35 = load i32, ptr %5, align 4
  %36 = load ptr, ptr %8, align 8
  %37 = getelementptr inbounds %struct.cli_bc_func, ptr %36, i32 0, i32 2
  %38 = load i32, ptr %37, align 4
  %39 = icmp ult i32 %35, %38
  br i1 %39, label %40, label %61

40:                                               ; preds = %34
  %41 = load i32, ptr %7, align 4
  %42 = load i32, ptr %6, align 4
  %43 = icmp ne i32 %41, %42
  br i1 %43, label %44, label %47

44:                                               ; preds = %40
  %45 = call i32 (ptr, ...) @printf(ptr noundef @.str.126)
  %46 = load i32, ptr %6, align 4
  store i32 %46, ptr %7, align 4
  br label %47

47:                                               ; preds = %44, %40
  %48 = load i32, ptr %6, align 4
  %49 = load i32, ptr %5, align 4
  %50 = call i32 (ptr, ...) @printf(ptr noundef @.str.263, i32 noundef %48, i32 noundef %49)
  %51 = load ptr, ptr %8, align 8
  %52 = getelementptr inbounds %struct.cli_bc_func, ptr %51, i32 0, i32 11
  %53 = load ptr, ptr %52, align 8
  %54 = load i32, ptr %5, align 4
  %55 = zext i32 %54 to i64
  %56 = getelementptr inbounds %struct.cli_bc_inst, ptr %53, i64 %55
  call void @cli_byteinst_describe(ptr noundef %56, ptr noundef %6)
  %57 = call i32 (ptr, ...) @printf(ptr noundef @.str.126)
  br label %58

58:                                               ; preds = %47
  %59 = load i32, ptr %5, align 4
  %60 = add i32 %59, 1
  store i32 %60, ptr %5, align 4
  br label %34

61:                                               ; preds = %34
  %62 = call i32 (ptr, ...) @printf(ptr noundef @.str.186)
  br label %63

63:                                               ; preds = %61, %14
  ret void
}