; Function Attrs: nofree nounwind uwtable
define void @cli_bytefunc_describe(ptr nocapture noundef readonly %0, i32 noundef %1) local_unnamed_addr #16 {
  %3 = alloca i32, align 4
  %4 = getelementptr inbounds i8, ptr %0, i64 60
  %5 = load i32, ptr %4, align 4
  %.not = icmp ugt i32 %5, %1
  br i1 %.not, label %8, label %6

6:                                                ; preds = %2
  %7 = tail call i32 (ptr, ...) @printf(ptr noundef nonnull dereferenceable(1) @.str.188, i32 noundef %1, i32 noundef %5)
  br label %29

8:                                                ; preds = %2
  %9 = getelementptr inbounds i8, ptr %0, i64 64
  %10 = load ptr, ptr %9, align 8
  %11 = zext i32 %1 to i64
  %12 = getelementptr inbounds %struct.cli_bc_func, ptr %10, i64 %11
  %13 = getelementptr inbounds i8, ptr %12, i64 4
  %14 = load i32, ptr %13, align 4
  %15 = tail call i32 (ptr, ...) @printf(ptr noundef nonnull dereferenceable(1) @.str.261, i32 noundef %1, i32 noundef %14)
  %puts = tail call i32 @puts(ptr nonnull dereferenceable(1) @str.15)
  %puts18 = tail call i32 @puts(ptr nonnull dereferenceable(1) @str.17)
  store i32 0, ptr %3, align 4
  %16 = load i32, ptr %13, align 4
  %.not24 = icmp eq i32 %16, 0
  br i1 %.not24, label %._crit_edge, label %.lr.ph

.lr.ph:                                           ; preds = %8
  %17 = getelementptr inbounds i8, ptr %12, i64 48
  br label %18

18:                                               ; preds = %.lr.ph, %21
  %indvars.iv = phi i64 [ 0, %.lr.ph ], [ %indvars.iv.next, %21 ]
  %.01422 = phi i32 [ 0, %.lr.ph ], [ %.1, %21 ]
  %19 = load i32, ptr %3, align 4
  %.not20 = icmp eq i32 %.01422, %19
  br i1 %.not20, label %21, label %20

20:                                               ; preds = %18
  %putchar = tail call i32 @putchar(i32 10)
  br label %21

21:                                               ; preds = %20, %18
  %.1 = phi i32 [ %19, %20 ], [ %.01422, %18 ]
  %22 = trunc nuw i64 %indvars.iv to i32
  %23 = tail call i32 (ptr, ...) @printf(ptr noundef nonnull dereferenceable(1) @.str.263, i32 noundef %19, i32 noundef %22)
  %24 = load ptr, ptr %17, align 8
  %25 = getelementptr inbounds %struct.cli_bc_inst, ptr %24, i64 %indvars.iv
  call void @cli_byteinst_describe(ptr noundef %25, ptr noundef nonnull %3)
  %putchar21 = tail call i32 @putchar(i32 10)
  %indvars.iv.next = add nuw nsw i64 %indvars.iv, 1
  %26 = load i32, ptr %13, align 4
  %27 = zext i32 %26 to i64
  %28 = icmp ult i64 %indvars.iv.next, %27
  br i1 %28, label %18, label %._crit_edge

._crit_edge:                                      ; preds = %21, %8
  %puts19 = tail call i32 @puts(ptr nonnull dereferenceable(1) @str.17)
  br label %29

29:                                               ; preds = %._crit_edge, %6
  ret void
}